target datalayout = "e-m:e-p270:32:32-p271:32:32-p272:64:64-i64:64-i128:128-f80:128-n8:16:32:64-S128"
target triple = "x86_64-unknown-linux-gnu"

%struct.FlashPartInfo = type { ptr, [6 x i8], i8, i32, i32, i32, i16, i8, ptr }
%struct.Flash = type { %struct.SSIPeripheral, ptr, ptr, i32, i32, i8, [16 x i8], i32, i32, i8, i8, i8, i32, i32, i32, i32, i8, i8, i8, i8, i8, i8, i8, i8, i8, i8, i8, i8, i8, i8, i8, i8, i8, i8, i8, i8, i8, i64, ptr }
%struct.SSIPeripheral = type { %struct.DeviceState, ptr, i8, i8 }
%struct.DeviceState = type { %struct.Object, ptr, ptr, i8, i8, i64, ptr, i32, i8, ptr, %struct.NamedGPIOListHead, %struct.NamedClockListHead, %struct.BusStateHead, i32, i32, i32, %struct.ResettableState, ptr, %struct.MemReentrancyGuard }
%struct.Object = type { ptr, ptr, ptr, i32, ptr }
%struct.NamedGPIOListHead = type { ptr }
%struct.NamedClockListHead = type { ptr }
%struct.BusStateHead = type { ptr }
%struct.ResettableState = type { i32, i8, i8 }
%struct.MemReentrancyGuard = type { i8 }
%struct.SSIPeripheralClass = type { %struct.DeviceClass, ptr, ptr, ptr, i32, ptr }
%struct.DeviceClass = type { %struct.ObjectClass, [1 x i64], ptr, ptr, ptr, i8, i8, ptr, ptr, ptr, ptr, ptr }
%struct.ObjectClass = type { ptr, ptr, [4 x ptr], [4 x ptr], ptr, ptr }
%struct.M25P80Class = type { %struct.SSIPeripheralClass, ptr }
%struct.timeval = type { i64, i64 }

@.str = private unnamed_addr constant [15 x i8] c"m25p80-generic\00", align 1
@.str.136 = private unnamed_addr constant [7 x i8] c"device\00", align 1
@.str.137 = private unnamed_addr constant [101 x i8] c"/home/dtcxzyw/WorkSpace/Projects/compilers/llvm-opt-benchmark/bench/qemu/qemu/include/hw/qdev-core.h\00", align 1
@.str.139 = private unnamed_addr constant [26 x i8] c"../qemu/hw/block/m25p80.c\00", align 1
@.str.140 = private unnamed_addr constant [4 x i8] c"WP#\00", align 1
@__func__.M25P80_GET_CLASS = private unnamed_addr constant [17 x i8] c"M25P80_GET_CLASS\00", align 1
@trace_events_enabled_count = external global i32, align 4
@_TRACE_M25P80_BINDING_DSTATE = external global i16, align 2
@message_with_timestamp = external global i8, align 1
@.str.141 = private unnamed_addr constant [58 x i8] c"%d@%zu.%06zu:m25p80_binding [%p] Binding to IF_MTD drive\0A\00", align 1
@.str.142 = private unnamed_addr constant [45 x i8] c"m25p80_binding [%p] Binding to IF_MTD drive\0A\00", align 1
@qemu_loglevel = external global i32, align 4
@_TRACE_M25P80_BINDING_NO_BDRV_DSTATE = external global i16, align 2
@.str.143 = private unnamed_addr constant [67 x i8] c"%d@%zu.%06zu:m25p80_binding_no_bdrv [%p] No BDRV - binding to RAM\0A\00", align 1
@.str.144 = private unnamed_addr constant [54 x i8] c"m25p80_binding_no_bdrv [%p] No BDRV - binding to RAM\0A\00", align 1
@__func__.DEVICE = private unnamed_addr constant [7 x i8] c"DEVICE\00", align 1
@__func__.M25P80 = private unnamed_addr constant [7 x i8] c"M25P80\00", align 1

; Function Attrs: nounwind sspstrong uwtable
define internal zeroext i1 @qemu_loglevel_mask(i32 noundef %mask) #0 {
entry:
  %mask.addr = alloca i32, align 4
  store i32 %mask, ptr %mask.addr, align 4
  %0 = load i32, ptr @qemu_loglevel, align 4
  %1 = load i32, ptr %mask.addr, align 4
  %and = and i32 %0, %1
  %cmp = icmp ne i32 %and, 0
  ret i1 %cmp
}

; Function Attrs: nounwind sspstrong uwtable
define internal void @_nocheck__trace_m25p80_binding_no_bdrv(ptr noundef %s) #0 {
entry:
  %s.addr = alloca ptr, align 8
  %_now = alloca %struct.timeval, align 8
  store ptr %s, ptr %s.addr, align 8
  %0 = load i32, ptr @trace_events_enabled_count, align 4
  %tobool = icmp ne i32 %0, 0
  %lnot = xor i1 %tobool, true
  %lnot1 = xor i1 %lnot, true
  %lnot.ext = zext i1 %lnot1 to i32
  %conv = sext i32 %lnot.ext to i64
  %tobool2 = icmp ne i64 %conv, 0
  br i1 %tobool2, label %land.lhs.true, label %if.end11

land.lhs.true:                                    ; preds = %entry
  %1 = load i16, ptr @_TRACE_M25P80_BINDING_NO_BDRV_DSTATE, align 2
  %conv3 = zext i16 %1 to i32
  %tobool4 = icmp ne i32 %conv3, 0
  br i1 %tobool4, label %land.lhs.true5, label %if.end11

land.lhs.true5:                                   ; preds = %land.lhs.true
  %call = call zeroext i1 @qemu_loglevel_mask(i32 noundef 32768)
  br i1 %call, label %if.then, label %if.end11

if.then:                                          ; preds = %land.lhs.true5
  %2 = load i8, ptr @message_with_timestamp, align 1
  %tobool7 = trunc i8 %2 to i1
  br i1 %tobool7, label %if.then8, label %if.else

if.then8:                                         ; preds = %if.then
  %call9 = call i32 @gettimeofday(ptr noundef %_now, ptr noundef null) #7
  %call10 = call i32 @qemu_get_thread_id()
  %tv_sec = getelementptr inbounds %struct.timeval, ptr %_now, i32 0, i32 0
  %3 = load i64, ptr %tv_sec, align 8
  %tv_usec = getelementptr inbounds %struct.timeval, ptr %_now, i32 0, i32 1
  %4 = load i64, ptr %tv_usec, align 8
  %5 = load ptr, ptr %s.addr, align 8
  call void (ptr, ...) @qemu_log(ptr noundef @.str.143, i32 noundef %call10, i64 noundef %3, i64 noundef %4, ptr noundef %5)
  br label %if.end

if.else:                                          ; preds = %if.then
  %6 = load ptr, ptr %s.addr, align 8
  call void (ptr, ...) @qemu_log(ptr noundef @.str.144, ptr noundef %6)
  br label %if.end

if.end:                                           ; preds = %if.else, %if.then8
  br label %if.end11

if.end11:                                         ; preds = %if.end, %land.lhs.true5, %land.lhs.true, %entry
  ret void
}

; Function Attrs: nounwind sspstrong uwtable
define internal void @_nocheck__trace_m25p80_binding(ptr noundef %s) #0 {
entry:
  %s.addr = alloca ptr, align 8
  %_now = alloca %struct.timeval, align 8
  store ptr %s, ptr %s.addr, align 8
  %0 = load i32, ptr @trace_events_enabled_count, align 4
  %tobool = icmp ne i32 %0, 0
  %lnot = xor i1 %tobool, true
  %lnot1 = xor i1 %lnot, true
  %lnot.ext = zext i1 %lnot1 to i32
  %conv = sext i32 %lnot.ext to i64
  %tobool2 = icmp ne i64 %conv, 0
  br i1 %tobool2, label %land.lhs.true, label %if.end11

land.lhs.true:                                    ; preds = %entry
  %1 = load i16, ptr @_TRACE_M25P80_BINDING_DSTATE, align 2
  %conv3 = zext i16 %1 to i32
  %tobool4 = icmp ne i32 %conv3, 0
  br i1 %tobool4, label %land.lhs.true5, label %if.end11

land.lhs.true5:                                   ; preds = %land.lhs.true
  %call = call zeroext i1 @qemu_loglevel_mask(i32 noundef 32768)
  br i1 %call, label %if.then, label %if.end11

if.then:                                          ; preds = %land.lhs.true5
  %2 = load i8, ptr @message_with_timestamp, align 1
  %tobool7 = trunc i8 %2 to i1
  br i1 %tobool7, label %if.then8, label %if.else

if.then8:                                         ; preds = %if.then
  %call9 = call i32 @gettimeofday(ptr noundef %_now, ptr noundef null) #7
  %call10 = call i32 @qemu_get_thread_id()
  %tv_sec = getelementptr inbounds %struct.timeval, ptr %_now, i32 0, i32 0
  %3 = load i64, ptr %tv_sec, align 8
  %tv_usec = getelementptr inbounds %struct.timeval, ptr %_now, i32 0, i32 1
  %4 = load i64, ptr %tv_usec, align 8
  %5 = load ptr, ptr %s.addr, align 8
  call void (ptr, ...) @qemu_log(ptr noundef @.str.141, i32 noundef %call10, i64 noundef %3, i64 noundef %4, ptr noundef %5)
  br label %if.end

if.else:                                          ; preds = %if.then
  %6 = load ptr, ptr %s.addr, align 8
  call void (ptr, ...) @qemu_log(ptr noundef @.str.142, ptr noundef %6)
  br label %if.end

if.end:                                           ; preds = %if.else, %if.then8
  br label %if.end11

if.end11:                                         ; preds = %if.end, %land.lhs.true5, %land.lhs.true, %entry
  ret void
}

; Function Attrs: nounwind sspstrong uwtable
define internal void @qdev_init_gpio_in_named(ptr noundef %dev, ptr noundef %handler, ptr noundef %name, i32 noundef %n) #0 {
entry:
  %dev.addr = alloca ptr, align 8
  %handler.addr = alloca ptr, align 8
  %name.addr = alloca ptr, align 8
  %n.addr = alloca i32, align 4
  store ptr %dev, ptr %dev.addr, align 8
  store ptr %handler, ptr %handler.addr, align 8
  store ptr %name, ptr %name.addr, align 8
  store i32 %n, ptr %n.addr, align 4
  %0 = load ptr, ptr %dev.addr, align 8
  %1 = load ptr, ptr %handler.addr, align 8
  %2 = load ptr, ptr %dev.addr, align 8
  %3 = load ptr, ptr %name.addr, align 8
  %4 = load i32, ptr %n.addr, align 4
  call void @qdev_init_gpio_in_named_with_opaque(ptr noundef %0, ptr noundef %1, ptr noundef %2, ptr noundef %3, i32 noundef %4)
  ret void
}

; Function Attrs: nounwind sspstrong uwtable
define internal ptr @DEVICE(ptr noundef %obj) #0 {
entry:
  %obj.addr = alloca ptr, align 8
  store ptr %obj, ptr %obj.addr, align 8
  %0 = load ptr, ptr %obj.addr, align 8
  %call = call ptr @object_dynamic_cast_assert(ptr noundef %0, ptr noundef @.str.136, ptr noundef @.str.137, i32 noundef 77, ptr noundef @__func__.DEVICE)
  ret ptr %call
}

; Function Attrs: nounwind sspstrong uwtable
define internal void @trace_m25p80_binding_no_bdrv(ptr noundef %s) #0 {
entry:
  %s.addr = alloca ptr, align 8
  store ptr %s, ptr %s.addr, align 8
  %0 = load ptr, ptr %s.addr, align 8
  call void @_nocheck__trace_m25p80_binding_no_bdrv(ptr noundef %0)
  ret void
}

; Function Attrs: nounwind sspstrong uwtable
define internal void @trace_m25p80_binding(ptr noundef %s) #0 {
entry:
  %s.addr = alloca ptr, align 8
  store ptr %s, ptr %s.addr, align 8
  %0 = load ptr, ptr %s.addr, align 8
  call void @_nocheck__trace_m25p80_binding(ptr noundef %0)
  ret void
}

; Function Attrs: nounwind sspstrong uwtable
define internal ptr @M25P80_GET_CLASS(ptr noundef %obj) #0 {
entry:
  %obj.addr = alloca ptr, align 8
  store ptr %obj, ptr %obj.addr, align 8
  %0 = load ptr, ptr %obj.addr, align 8
  %call = call ptr @object_get_class(ptr noundef %0)
  %call1 = call ptr @object_class_dynamic_cast_assert(ptr noundef %call, ptr noundef @.str, ptr noundef @.str.139, i32 noundef 516, ptr noundef @__func__.M25P80_GET_CLASS)
  ret ptr %call1
}

; Function Attrs: nounwind sspstrong uwtable
define internal ptr @M25P80(ptr noundef %obj) #0 {
entry:
  %obj.addr = alloca ptr, align 8
  store ptr %obj, ptr %obj.addr, align 8
  %0 = load ptr, ptr %obj.addr, align 8
  %call = call ptr @object_dynamic_cast_assert(ptr noundef %0, ptr noundef @.str, ptr noundef @.str.139, i32 noundef 516, ptr noundef @__func__.M25P80)
  ret ptr %call
}

; Function Attrs: nounwind sspstrong uwtable
define internal void @m25p80_realize(ptr noundef %ss, ptr noundef %errp) #0 {
entry:
  %ss.addr = alloca ptr, align 8
  %errp.addr = alloca ptr, align 8
  %s = alloca ptr, align 8
  %mc = alloca ptr, align 8
  %ret = alloca i32, align 4
  %perm = alloca i64, align 8
  store ptr %ss, ptr %ss.addr, align 8
  store ptr %errp, ptr %errp.addr, align 8
  %0 = load ptr, ptr %ss.addr, align 8
  %call = call ptr @M25P80(ptr noundef %0)
  store ptr %call, ptr %s, align 8
  %1 = load ptr, ptr %s, align 8
  %call1 = call ptr @M25P80_GET_CLASS(ptr noundef %1)
  store ptr %call1, ptr %mc, align 8
  %2 = load ptr, ptr %mc, align 8
  %pi = getelementptr inbounds %struct.M25P80Class, ptr %2, i32 0, i32 1
  %3 = load ptr, ptr %pi, align 8
  %4 = load ptr, ptr %s, align 8
  %pi2 = getelementptr inbounds %struct.Flash, ptr %4, i32 0, i32 38
  store ptr %3, ptr %pi2, align 8
  %5 = load ptr, ptr %s, align 8
  %pi3 = getelementptr inbounds %struct.Flash, ptr %5, i32 0, i32 38
  %6 = load ptr, ptr %pi3, align 8
  %sector_size = getelementptr inbounds %struct.FlashPartInfo, ptr %6, i32 0, i32 3
  %7 = load i32, ptr %sector_size, align 8
  %8 = load ptr, ptr %s, align 8
  %pi4 = getelementptr inbounds %struct.Flash, ptr %8, i32 0, i32 38
  %9 = load ptr, ptr %pi4, align 8
  %n_sectors = getelementptr inbounds %struct.FlashPartInfo, ptr %9, i32 0, i32 4
  %10 = load i32, ptr %n_sectors, align 4
  %mul = mul i32 %7, %10
  %11 = load ptr, ptr %s, align 8
  %size = getelementptr inbounds %struct.Flash, ptr %11, i32 0, i32 3
  store i32 %mul, ptr %size, align 8
  %12 = load ptr, ptr %s, align 8
  %dirty_page = getelementptr inbounds %struct.Flash, ptr %12, i32 0, i32 37
  store i64 -1, ptr %dirty_page, align 8
  %13 = load ptr, ptr %s, align 8
  %blk = getelementptr inbounds %struct.Flash, ptr %13, i32 0, i32 1
  %14 = load ptr, ptr %blk, align 8
  %tobool = icmp ne ptr %14, null
  br i1 %tobool, label %if.then, label %if.else

if.then:                                          ; preds = %entry
  %15 = load ptr, ptr %s, align 8
  %blk5 = getelementptr inbounds %struct.Flash, ptr %15, i32 0, i32 1
  %16 = load ptr, ptr %blk5, align 8
  %call6 = call zeroext i1 @blk_supports_write_perm(ptr noundef %16)
  %cond = select i1 %call6, i32 2, i32 0
  %or = or i32 1, %cond
  %conv = sext i32 %or to i64
  store i64 %conv, ptr %perm, align 8
  %17 = load ptr, ptr %s, align 8
  %blk7 = getelementptr inbounds %struct.Flash, ptr %17, i32 0, i32 1
  %18 = load ptr, ptr %blk7, align 8
  %19 = load i64, ptr %perm, align 8
  %20 = load ptr, ptr %errp.addr, align 8
  %call8 = call i32 @blk_set_perm(ptr noundef %18, i64 noundef %19, i64 noundef 15, ptr noundef %20)
  store i32 %call8, ptr %ret, align 4
  %21 = load i32, ptr %ret, align 4
  %cmp = icmp slt i32 %21, 0
  br i1 %cmp, label %if.then10, label %if.end

if.then10:                                        ; preds = %if.then
  br label %return

if.end:                                           ; preds = %if.then
  %22 = load ptr, ptr %s, align 8
  call void @trace_m25p80_binding(ptr noundef %22)
  %23 = load ptr, ptr %s, align 8
  %blk11 = getelementptr inbounds %struct.Flash, ptr %23, i32 0, i32 1
  %24 = load ptr, ptr %blk11, align 8
  %25 = load ptr, ptr %s, align 8
  %size12 = getelementptr inbounds %struct.Flash, ptr %25, i32 0, i32 3
  %26 = load i32, ptr %size12, align 8
  %conv13 = zext i32 %26 to i64
  %call14 = call ptr @blk_blockalign(ptr noundef %24, i64 noundef %conv13)
  %27 = load ptr, ptr %s, align 8
  %storage = getelementptr inbounds %struct.Flash, ptr %27, i32 0, i32 2
  store ptr %call14, ptr %storage, align 8
  %28 = load ptr, ptr %s, align 8
  %blk15 = getelementptr inbounds %struct.Flash, ptr %28, i32 0, i32 1
  %29 = load ptr, ptr %blk15, align 8
  %30 = load ptr, ptr %s, align 8
  %storage16 = getelementptr inbounds %struct.Flash, ptr %30, i32 0, i32 2
  %31 = load ptr, ptr %storage16, align 8
  %32 = load ptr, ptr %s, align 8
  %size17 = getelementptr inbounds %struct.Flash, ptr %32, i32 0, i32 3
  %33 = load i32, ptr %size17, align 8
  %conv18 = zext i32 %33 to i64
  %34 = load ptr, ptr %errp.addr, align 8
  %call19 = call zeroext i1 @blk_check_size_and_read_all(ptr noundef %29, ptr noundef %31, i64 noundef %conv18, ptr noundef %34)
  br i1 %call19, label %if.end21, label %if.then20

if.then20:                                        ; preds = %if.end
  br label %return

if.end21:                                         ; preds = %if.end
  br label %if.end29

if.else:                                          ; preds = %entry
  %35 = load ptr, ptr %s, align 8
  call void @trace_m25p80_binding_no_bdrv(ptr noundef %35)
  %36 = load ptr, ptr %s, align 8
  %size22 = getelementptr inbounds %struct.Flash, ptr %36, i32 0, i32 3
  %37 = load i32, ptr %size22, align 8
  %conv23 = zext i32 %37 to i64
  %call24 = call ptr @blk_blockalign(ptr noundef null, i64 noundef %conv23)
  %38 = load ptr, ptr %s, align 8
  %storage25 = getelementptr inbounds %struct.Flash, ptr %38, i32 0, i32 2
  store ptr %call24, ptr %storage25, align 8
  %39 = load ptr, ptr %s, align 8
  %storage26 = getelementptr inbounds %struct.Flash, ptr %39, i32 0, i32 2
  %40 = load ptr, ptr %storage26, align 8
  %41 = load ptr, ptr %s, align 8
  %size27 = getelementptr inbounds %struct.Flash, ptr %41, i32 0, i32 3
  %42 = load i32, ptr %size27, align 8
  %conv28 = zext i32 %42 to i64
  call void @llvm.memset.p0.i64(ptr align 1 %40, i8 -1, i64 %conv28, i1 false)
  br label %if.end29

if.end29:                                         ; preds = %if.else, %if.end21
  %43 = load ptr, ptr %s, align 8
  %call30 = call ptr @DEVICE(ptr noundef %43)
  call void @qdev_init_gpio_in_named(ptr noundef %call30, ptr noundef @m25p80_write_protect_pin_irq_handler, ptr noundef @.str.140, i32 noundef 1)
  br label %return

return:                                           ; preds = %if.end29, %if.then20, %if.then10
  ret void
}