; Function Attrs: nounwind sspstrong uwtable
define internal void @m25p80_realize(ptr noundef %ss, ptr noundef %errp) #0 {
entry:
  %_now.i.i24 = alloca %struct.timeval, align 8
  %_now.i.i = alloca %struct.timeval, align 8
  %call.i = tail call ptr @object_dynamic_cast_assert(ptr noundef %ss, ptr noundef nonnull @.str, ptr noundef nonnull @.str.139, i32 noundef 516, ptr noundef nonnull @__func__.M25P80) #13
  %call.i23 = tail call ptr @object_get_class(ptr noundef %call.i) #13
  %call1.i = tail call ptr @object_class_dynamic_cast_assert(ptr noundef %call.i23, ptr noundef nonnull @.str, ptr noundef nonnull @.str.139, i32 noundef 516, ptr noundef nonnull @__func__.M25P80_GET_CLASS) #13
  %pi = getelementptr inbounds nuw i8, ptr %call1.i, i64 216
  %0 = load ptr, ptr %pi, align 8
  %pi2 = getelementptr inbounds nuw i8, ptr %call.i, i64 280
  store ptr %0, ptr %pi2, align 8
  %sector_size = getelementptr inbounds nuw i8, ptr %0, i64 16
  %1 = load i32, ptr %sector_size, align 8
  %n_sectors = getelementptr inbounds nuw i8, ptr %0, i64 20
  %2 = load i32, ptr %n_sectors, align 4
  %mul = mul i32 %2, %1
  %size = getelementptr inbounds nuw i8, ptr %call.i, i64 192
  store i32 %mul, ptr %size, align 8
  %dirty_page = getelementptr inbounds nuw i8, ptr %call.i, i64 272
  store i64 -1, ptr %dirty_page, align 8
  %blk = getelementptr inbounds nuw i8, ptr %call.i, i64 176
  %3 = load ptr, ptr %blk, align 8
  %tobool.not = icmp eq ptr %3, null
  br i1 %tobool.not, label %if.else, label %if.then

if.then:                                          ; preds = %entry
  %call6 = tail call zeroext i1 @blk_supports_write_perm(ptr noundef nonnull %3) #13
  %conv = select i1 %call6, i64 3, i64 1
  %4 = load ptr, ptr %blk, align 8
  %call8 = tail call i32 @blk_set_perm(ptr noundef %4, i64 noundef %conv, i64 noundef 15, ptr noundef %errp) #13
  %cmp = icmp slt i32 %call8, 0
  br i1 %cmp, label %return, label %if.end

if.end:                                           ; preds = %if.then
  call void @llvm.lifetime.start.p0(i64 16, ptr nonnull %_now.i.i)
  %5 = load i32, ptr @trace_events_enabled_count, align 4
  %tobool.i.i = icmp ne i32 %5, 0
  %6 = load i16, ptr @_TRACE_M25P80_BINDING_DSTATE, align 2
  %tobool4.i.i = icmp ne i16 %6, 0
  %or.cond.i.i = select i1 %tobool.i.i, i1 %tobool4.i.i, i1 false
  br i1 %or.cond.i.i, label %land.lhs.true5.i.i, label %trace_m25p80_binding.exit

land.lhs.true5.i.i:                               ; preds = %if.end
  %7 = load i32, ptr @qemu_loglevel, align 4
  %and.i.i.i = and i32 %7, 32768
  %cmp.i.not.i.i = icmp eq i32 %and.i.i.i, 0
  br i1 %cmp.i.not.i.i, label %trace_m25p80_binding.exit, label %if.then.i.i

if.then.i.i:                                      ; preds = %land.lhs.true5.i.i
  %8 = load i8, ptr @message_with_timestamp, align 1
  %tobool7.i.i = trunc i8 %8 to i1
  br i1 %tobool7.i.i, label %if.then8.i.i, label %if.else.i.i

if.then8.i.i:                                     ; preds = %if.then.i.i
  %call9.i.i = call i32 @gettimeofday(ptr noundef nonnull %_now.i.i, ptr noundef null) #13
  %call10.i.i = tail call i32 @qemu_get_thread_id() #13
  %9 = load i64, ptr %_now.i.i, align 8
  %tv_usec.i.i = getelementptr inbounds nuw i8, ptr %_now.i.i, i64 8
  %10 = load i64, ptr %tv_usec.i.i, align 8
  tail call void (ptr, ...) @qemu_log(ptr noundef nonnull @.str.141, i32 noundef %call10.i.i, i64 noundef %9, i64 noundef %10, ptr noundef nonnull %call.i) #13
  br label %trace_m25p80_binding.exit

if.else.i.i:                                      ; preds = %if.then.i.i
  tail call void (ptr, ...) @qemu_log(ptr noundef nonnull @.str.142, ptr noundef nonnull %call.i) #13
  br label %trace_m25p80_binding.exit

trace_m25p80_binding.exit:                        ; preds = %if.end, %land.lhs.true5.i.i, %if.then8.i.i, %if.else.i.i
  call void @llvm.lifetime.end.p0(i64 16, ptr nonnull %_now.i.i)
  %11 = load ptr, ptr %blk, align 8
  %12 = load i32, ptr %size, align 8
  %conv13 = zext i32 %12 to i64
  %call14 = tail call ptr @blk_blockalign(ptr noundef %11, i64 noundef %conv13) #13
  %storage = getelementptr inbounds nuw i8, ptr %call.i, i64 184
  store ptr %call14, ptr %storage, align 8
  %13 = load ptr, ptr %blk, align 8
  %14 = load i32, ptr %size, align 8
  %conv18 = zext i32 %14 to i64
  %call19 = tail call zeroext i1 @blk_check_size_and_read_all(ptr noundef %13, ptr noundef %call14, i64 noundef %conv18, ptr noundef %errp) #13
  br i1 %call19, label %if.end29, label %return

if.else:                                          ; preds = %entry
  call void @llvm.lifetime.start.p0(i64 16, ptr nonnull %_now.i.i24)
  %15 = load i32, ptr @trace_events_enabled_count, align 4
  %tobool.i.i25 = icmp ne i32 %15, 0
  %16 = load i16, ptr @_TRACE_M25P80_BINDING_NO_BDRV_DSTATE, align 2
  %tobool4.i.i26 = icmp ne i16 %16, 0
  %or.cond.i.i27 = select i1 %tobool.i.i25, i1 %tobool4.i.i26, i1 false
  br i1 %or.cond.i.i27, label %land.lhs.true5.i.i28, label %trace_m25p80_binding_no_bdrv.exit

land.lhs.true5.i.i28:                             ; preds = %if.else
  %17 = load i32, ptr @qemu_loglevel, align 4
  %and.i.i.i29 = and i32 %17, 32768
  %cmp.i.not.i.i30 = icmp eq i32 %and.i.i.i29, 0
  br i1 %cmp.i.not.i.i30, label %trace_m25p80_binding_no_bdrv.exit, label %if.then.i.i31

if.then.i.i31:                                    ; preds = %land.lhs.true5.i.i28
  %18 = load i8, ptr @message_with_timestamp, align 1
  %tobool7.i.i32 = trunc i8 %18 to i1
  br i1 %tobool7.i.i32, label %if.then8.i.i34, label %if.else.i.i33

if.then8.i.i34:                                   ; preds = %if.then.i.i31
  %call9.i.i35 = call i32 @gettimeofday(ptr noundef nonnull %_now.i.i24, ptr noundef null) #13
  %call10.i.i36 = tail call i32 @qemu_get_thread_id() #13
  %19 = load i64, ptr %_now.i.i24, align 8
  %tv_usec.i.i37 = getelementptr inbounds nuw i8, ptr %_now.i.i24, i64 8
  %20 = load i64, ptr %tv_usec.i.i37, align 8
  tail call void (ptr, ...) @qemu_log(ptr noundef nonnull @.str.143, i32 noundef %call10.i.i36, i64 noundef %19, i64 noundef %20, ptr noundef nonnull %call.i) #13
  br label %trace_m25p80_binding_no_bdrv.exit

if.else.i.i33:                                    ; preds = %if.then.i.i31
  tail call void (ptr, ...) @qemu_log(ptr noundef nonnull @.str.144, ptr noundef nonnull %call.i) #13
  br label %trace_m25p80_binding_no_bdrv.exit

trace_m25p80_binding_no_bdrv.exit:                ; preds = %if.else, %land.lhs.true5.i.i28, %if.then8.i.i34, %if.else.i.i33
  call void @llvm.lifetime.end.p0(i64 16, ptr nonnull %_now.i.i24)
  %21 = load i32, ptr %size, align 8
  %conv23 = zext i32 %21 to i64
  %call24 = tail call ptr @blk_blockalign(ptr noundef null, i64 noundef %conv23) #13
  %storage25 = getelementptr inbounds nuw i8, ptr %call.i, i64 184
  store ptr %call24, ptr %storage25, align 8
  %22 = load i32, ptr %size, align 8
  %conv28 = zext i32 %22 to i64
  tail call void @llvm.memset.p0.i64(ptr align 1 %call24, i8 -1, i64 %conv28, i1 false)
  br label %if.end29

if.end29:                                         ; preds = %trace_m25p80_binding.exit, %trace_m25p80_binding_no_bdrv.exit
  %call.i38 = tail call ptr @object_dynamic_cast_assert(ptr noundef nonnull %call.i, ptr noundef nonnull @.str.136, ptr noundef nonnull @.str.137, i32 noundef 77, ptr noundef nonnull @__func__.DEVICE) #13
  tail call void @qdev_init_gpio_in_named_with_opaque(ptr noundef %call.i38, ptr noundef nonnull @m25p80_write_protect_pin_irq_handler, ptr noundef %call.i38, ptr noundef nonnull @.str.140, i32 noundef 1) #13
  br label %return

return:                                           ; preds = %trace_m25p80_binding.exit, %if.then, %if.end29
  ret void
}